; Function Attrs: mustprogress uwtable
define void @_ZN3nix11LocalSignerC2EONS_9SecretKeyE(ptr noundef nonnull align 8 dereferenceable(136) %0, ptr noundef nonnull align 8 dereferenceable(64) %1) unnamed_addr #2 align 2 personality ptr @__gxx_personality_v0 {
.noexc:
  store ptr getelementptr inbounds ({ [6 x ptr] }, ptr @_ZTVN3nix11LocalSignerE, i64 0, i32 0, i64 2), ptr %0, align 8
  %2 = getelementptr inbounds i8, ptr %0, i64 8
  tail call void @_ZNSt7__cxx1112basic_stringIcSt11char_traitsIcESaIcEEC2ERKS4_(ptr noundef nonnull align 8 dereferenceable(32) %2, ptr noundef nonnull align 8 dereferenceable(32) %1)
  %3 = getelementptr inbounds i8, ptr %0, i64 40
  %4 = getelementptr inbounds i8, ptr %1, i64 32
  invoke void @_ZNSt7__cxx1112basic_stringIcSt11char_traitsIcESaIcEEC2ERKS4_(ptr noundef nonnull align 8 dereferenceable(32) %3, ptr noundef nonnull align 8 dereferenceable(32) %4)
          to label %_ZN3nix9SecretKeyC2ERKS0_.exit unwind label %5

5:                                                ; preds = %.noexc
  %6 = landingpad { ptr, i32 }
          cleanup
  tail call void @_ZNSt7__cxx1112basic_stringIcSt11char_traitsIcESaIcEED2Ev(ptr noundef nonnull align 8 dereferenceable(32) %2) #12
  br label %.body

_ZN3nix9SecretKeyC2ERKS0_.exit:                   ; preds = %.noexc
  %7 = getelementptr inbounds i8, ptr %0, i64 72
  invoke void @_ZNK3nix9SecretKey11toPublicKeyEv(ptr dead_on_unwind nonnull writable sret(%"struct.nix::PublicKey") align 8 %7, ptr noundef nonnull align 8 dereferenceable(64) %1)
          to label %8 unwind label %9

8:                                                ; preds = %_ZN3nix9SecretKeyC2ERKS0_.exit
  ret void

9:                                                ; preds = %_ZN3nix9SecretKeyC2ERKS0_.exit
  %10 = landingpad { ptr, i32 }
          cleanup
  tail call void @_ZN3nix9SecretKeyD2Ev(ptr noundef nonnull align 8 dereferenceable(64) %2) #12
  br label %.body

.body:                                            ; preds = %5, %9
  %.pn = phi { ptr, i32 } [ %10, %9 ], [ %6, %5 ]
  resume { ptr, i32 } %.pn
}